; Function Attrs: nounwind uwtable
define hidden void @mlib_ImageDeleteRowTable(ptr noundef %0) local_unnamed_addr #1 {
  %2 = icmp eq ptr %0, null
  br i1 %2, label %8, label %3

3:                                                ; preds = %1
  %4 = getelementptr inbounds i8, ptr %0, i64 32
  %5 = load ptr, ptr %4, align 8
  %.not = icmp eq ptr %5, null
  br i1 %.not, label %8, label %6

6:                                                ; preds = %3
  %7 = getelementptr inbounds i8, ptr %5, i64 -16
  tail call void @mlib_free(ptr noundef nonnull %7) #7
  store ptr null, ptr %4, align 8
  br label %8

8:                                                ; preds = %3, %1, %6
  ret void
}